target datalayout = "e-m:e-p270:32:32-p271:32:32-p272:64:64-i64:64-i128:128-f80:128-n8:16:32:64-S128"
target triple = "x86_64-pc-linux-gnu"

%struct.tng_trajectory = type { ptr, ptr, i64, ptr, ptr, ptr, ptr, ptr, ptr, i8, i8, ptr, ptr, ptr, ptr, ptr, ptr, ptr, ptr, ptr, i64, i64, i8, i64, i64, i64, double, i64, ptr, ptr, i64, i64, i64, i64, i64, %struct.tng_trajectory_frame_set, i64, i64, i64, i32, ptr, i32, ptr, ptr, ptr, double }
%struct.tng_trajectory_frame_set = type { i64, ptr, i64, i64, i64, i64, ptr, i64, i64, i64, i64, i64, i64, i64, double, i32, ptr, i32, ptr }
%struct.tng_gen_block = type { i64, i64, i64, [16 x i8], ptr, i64, i64, i64, ptr, i64, i64, ptr, ptr, ptr }

@stderr = external global ptr, align 8
@.str = private unnamed_addr constant [45 x i8] c"TNG library: Cannot allocate memory. %s: %d\0A\00", align 1
@.str.1 = private unnamed_addr constant [130 x i8] c"generated/home/dtcxzyw/WorkSpace/Projects/compilers/llvm-opt-benchmark/bench/gromacs/gromacs/src/external/tng_io/src/lib/tng_io.c\00", align 1
@.str.14 = private unnamed_addr constant [58 x i8] c"TNG library: Cannot read block header at pos %ld. %s: %d\0A\00", align 1

; Function Attrs: nounwind uwtable
define internal i32 @tng_block_destroy(ptr noundef %0) #0 {
  %2 = alloca i32, align 4
  %3 = alloca ptr, align 8
  %4 = alloca ptr, align 8
  %5 = alloca i32, align 4
  store ptr %0, ptr %3, align 8, !tbaa !235
  call void @llvm.lifetime.start.p0(i64 8, ptr %4) #11
  %6 = load ptr, ptr %3, align 8, !tbaa !235
  %7 = load ptr, ptr %6, align 8, !tbaa !221
  store ptr %7, ptr %4, align 8, !tbaa !221
  %8 = load ptr, ptr %3, align 8, !tbaa !235
  %9 = load ptr, ptr %8, align 8, !tbaa !221
  %10 = icmp ne ptr %9, null
  br i1 %10, label %12, label %11

11:                                               ; preds = %1
  store i32 0, ptr %2, align 4
  store i32 1, ptr %5, align 4
  br label %49

12:                                               ; preds = %1
  %13 = load ptr, ptr %4, align 8, !tbaa !221
  %14 = getelementptr inbounds nuw %struct.tng_gen_block, ptr %13, i32 0, i32 4
  %15 = load ptr, ptr %14, align 8, !tbaa !237
  %16 = icmp ne ptr %15, null
  br i1 %16, label %17, label %23

17:                                               ; preds = %12
  %18 = load ptr, ptr %4, align 8, !tbaa !221
  %19 = getelementptr inbounds nuw %struct.tng_gen_block, ptr %18, i32 0, i32 4
  %20 = load ptr, ptr %19, align 8, !tbaa !237
  call void @free(ptr noundef %20) #11
  %21 = load ptr, ptr %4, align 8, !tbaa !221
  %22 = getelementptr inbounds nuw %struct.tng_gen_block, ptr %21, i32 0, i32 4
  store ptr null, ptr %22, align 8, !tbaa !237
  br label %23

23:                                               ; preds = %17, %12
  %24 = load ptr, ptr %4, align 8, !tbaa !221
  %25 = getelementptr inbounds nuw %struct.tng_gen_block, ptr %24, i32 0, i32 12
  %26 = load ptr, ptr %25, align 8, !tbaa !239
  %27 = icmp ne ptr %26, null
  br i1 %27, label %28, label %34

28:                                               ; preds = %23
  %29 = load ptr, ptr %4, align 8, !tbaa !221
  %30 = getelementptr inbounds nuw %struct.tng_gen_block, ptr %29, i32 0, i32 12
  %31 = load ptr, ptr %30, align 8, !tbaa !239
  call void @free(ptr noundef %31) #11
  %32 = load ptr, ptr %4, align 8, !tbaa !221
  %33 = getelementptr inbounds nuw %struct.tng_gen_block, ptr %32, i32 0, i32 12
  store ptr null, ptr %33, align 8, !tbaa !239
  br label %34

34:                                               ; preds = %28, %23
  %35 = load ptr, ptr %4, align 8, !tbaa !221
  %36 = getelementptr inbounds nuw %struct.tng_gen_block, ptr %35, i32 0, i32 13
  %37 = load ptr, ptr %36, align 8, !tbaa !240
  %38 = icmp ne ptr %37, null
  br i1 %38, label %39, label %45

39:                                               ; preds = %34
  %40 = load ptr, ptr %4, align 8, !tbaa !221
  %41 = getelementptr inbounds nuw %struct.tng_gen_block, ptr %40, i32 0, i32 13
  %42 = load ptr, ptr %41, align 8, !tbaa !240
  call void @free(ptr noundef %42) #11
  %43 = load ptr, ptr %4, align 8, !tbaa !221
  %44 = getelementptr inbounds nuw %struct.tng_gen_block, ptr %43, i32 0, i32 13
  store ptr null, ptr %44, align 8, !tbaa !240
  br label %45

45:                                               ; preds = %39, %34
  %46 = load ptr, ptr %3, align 8, !tbaa !235
  %47 = load ptr, ptr %46, align 8, !tbaa !221
  call void @free(ptr noundef %47) #11
  %48 = load ptr, ptr %3, align 8, !tbaa !235
  store ptr null, ptr %48, align 8, !tbaa !221
  store i32 0, ptr %2, align 4
  store i32 1, ptr %5, align 4
  br label %49

49:                                               ; preds = %45, %11
  call void @llvm.lifetime.end.p0(i64 8, ptr %4) #11
  %50 = load i32, ptr %2, align 4
  ret i32 %50
}

; Function Attrs: nounwind uwtable
define internal i32 @tng_block_init(ptr noundef %0) #0 {
  %2 = alloca i32, align 4
  %3 = alloca ptr, align 8
  %4 = alloca ptr, align 8
  %5 = alloca i32, align 4
  store ptr %0, ptr %3, align 8, !tbaa !235
  call void @llvm.lifetime.start.p0(i64 8, ptr %4) #11
  %6 = call noalias ptr @malloc(i64 noundef 120) #13
  %7 = load ptr, ptr %3, align 8, !tbaa !235
  store ptr %6, ptr %7, align 8, !tbaa !221
  %8 = load ptr, ptr %3, align 8, !tbaa !235
  %9 = load ptr, ptr %8, align 8, !tbaa !221
  %10 = icmp ne ptr %9, null
  br i1 %10, label %14, label %11

11:                                               ; preds = %1
  %12 = load ptr, ptr @stderr, align 8, !tbaa !24
  %13 = call i32 (ptr, ptr, ...) @fprintf(ptr noundef %12, ptr noundef @.str, ptr noundef @.str.1, i32 noundef 940) #11
  store i32 2, ptr %2, align 4
  store i32 1, ptr %5, align 4
  br label %34

14:                                               ; preds = %1
  %15 = load ptr, ptr %3, align 8, !tbaa !235
  %16 = load ptr, ptr %15, align 8, !tbaa !221
  store ptr %16, ptr %4, align 8, !tbaa !221
  %17 = load ptr, ptr %4, align 8, !tbaa !221
  %18 = getelementptr inbounds nuw %struct.tng_gen_block, ptr %17, i32 0, i32 2
  store i64 -1, ptr %18, align 8, !tbaa !230
  %19 = load ptr, ptr %4, align 8, !tbaa !221
  %20 = getelementptr inbounds nuw %struct.tng_gen_block, ptr %19, i32 0, i32 3
  %21 = getelementptr inbounds [16 x i8], ptr %20, i64 0, i64 0
  call void @llvm.memset.p0.i64(ptr align 8 %21, i8 0, i64 16, i1 false)
  %22 = load ptr, ptr %4, align 8, !tbaa !221
  %23 = getelementptr inbounds nuw %struct.tng_gen_block, ptr %22, i32 0, i32 4
  store ptr null, ptr %23, align 8, !tbaa !237
  %24 = load ptr, ptr %4, align 8, !tbaa !221
  %25 = getelementptr inbounds nuw %struct.tng_gen_block, ptr %24, i32 0, i32 5
  store i64 8, ptr %25, align 8, !tbaa !238
  %26 = load ptr, ptr %4, align 8, !tbaa !221
  %27 = getelementptr inbounds nuw %struct.tng_gen_block, ptr %26, i32 0, i32 12
  store ptr null, ptr %27, align 8, !tbaa !239
  %28 = load ptr, ptr %4, align 8, !tbaa !221
  %29 = getelementptr inbounds nuw %struct.tng_gen_block, ptr %28, i32 0, i32 0
  store i64 0, ptr %29, align 8, !tbaa !223
  %30 = load ptr, ptr %4, align 8, !tbaa !221
  %31 = getelementptr inbounds nuw %struct.tng_gen_block, ptr %30, i32 0, i32 13
  store ptr null, ptr %31, align 8, !tbaa !240
  %32 = load ptr, ptr %4, align 8, !tbaa !221
  %33 = getelementptr inbounds nuw %struct.tng_gen_block, ptr %32, i32 0, i32 1
  store i64 0, ptr %33, align 8, !tbaa !241
  store i32 0, ptr %2, align 4
  store i32 1, ptr %5, align 4
  br label %34

34:                                               ; preds = %14, %11
  call void @llvm.lifetime.end.p0(i64 8, ptr %4) #11
  %35 = load i32, ptr %2, align 4
  ret i32 %35
}

; Function Attrs: nounwind uwtable
define internal i32 @tng_reread_frame_set_at_file_pos(ptr noundef %0, i64 noundef %1) #0 {
  %3 = alloca i32, align 4
  %4 = alloca ptr, align 8
  %5 = alloca i64, align 8
  %6 = alloca ptr, align 8
  %7 = alloca i32, align 4
  %8 = alloca i32, align 4
  store ptr %0, ptr %4, align 8, !tbaa !3
  store i64 %1, ptr %5, align 8, !tbaa !26
  call void @llvm.lifetime.start.p0(i64 8, ptr %6) #11
  call void @llvm.lifetime.start.p0(i64 4, ptr %7) #11
  %9 = call i32 @tng_block_init(ptr noundef %6)
  %10 = load ptr, ptr %4, align 8, !tbaa !3
  %11 = getelementptr inbounds nuw %struct.tng_trajectory, ptr %10, i32 0, i32 1
  %12 = load ptr, ptr %11, align 8, !tbaa !136
  %13 = load i64, ptr %5, align 8, !tbaa !26
  %14 = call i32 @fseeko64(ptr noundef %12, i64 noundef %13, i32 noundef 0)
  %15 = load i64, ptr %5, align 8, !tbaa !26
  %16 = icmp sgt i64 %15, 0
  br i1 %16, label %17, label %41

17:                                               ; preds = %2
  %18 = load ptr, ptr %4, align 8, !tbaa !3
  %19 = load ptr, ptr %6, align 8, !tbaa !221
  %20 = call i32 @tng_block_header_read(ptr noundef %18, ptr noundef %19)
  store i32 %20, ptr %7, align 4, !tbaa !20
  %21 = load i32, ptr %7, align 4, !tbaa !20
  %22 = icmp eq i32 %21, 2
  br i1 %22, label %28, label %23

23:                                               ; preds = %17
  %24 = load ptr, ptr %6, align 8, !tbaa !221
  %25 = getelementptr inbounds nuw %struct.tng_gen_block, ptr %24, i32 0, i32 2
  %26 = load i64, ptr %25, align 8, !tbaa !230
  %27 = icmp ne i64 %26, 2
  br i1 %27, label %28, label %33

28:                                               ; preds = %23, %17
  %29 = load ptr, ptr @stderr, align 8, !tbaa !24
  %30 = load i64, ptr %5, align 8, !tbaa !26
  %31 = call i32 (ptr, ptr, ...) @fprintf(ptr noundef %29, ptr noundef @.str.14, i64 noundef %30, ptr noundef @.str.1, i32 noundef 1584) #11
  %32 = call i32 @tng_block_destroy(ptr noundef %6)
  store i32 1, ptr %3, align 4
  store i32 1, ptr %8, align 4
  br label %43

33:                                               ; preds = %23
  %34 = load ptr, ptr %4, align 8, !tbaa !3
  %35 = load ptr, ptr %6, align 8, !tbaa !221
  %36 = call i32 @tng_block_read_next(ptr noundef %34, ptr noundef %35, i8 noundef signext 0)
  %37 = icmp ne i32 %36, 0
  br i1 %37, label %38, label %40

38:                                               ; preds = %33
  %39 = call i32 @tng_block_destroy(ptr noundef %6)
  store i32 2, ptr %3, align 4
  store i32 1, ptr %8, align 4
  br label %43

40:                                               ; preds = %33
  br label %41

41:                                               ; preds = %40, %2
  %42 = call i32 @tng_block_destroy(ptr noundef %6)
  store i32 0, ptr %3, align 4
  store i32 1, ptr %8, align 4
  br label %43

43:                                               ; preds = %41, %38, %28
  call void @llvm.lifetime.end.p0(i64 4, ptr %7) #11
  call void @llvm.lifetime.end.p0(i64 8, ptr %6) #11
  %44 = load i32, ptr %3, align 4
  ret i32 %44
}