; Function Attrs: nounwind uwtable
define internal fastcc range(i32 0, 3) i32 @tng_reread_frame_set_at_file_pos(ptr noundef %0, i64 noundef %1) unnamed_addr #4 {
  %3 = tail call noalias dereferenceable_or_null(120) ptr @malloc(i64 noundef 120) #28
  %.not.i = icmp eq ptr %3, null
  br i1 %.not.i, label %tng_block_init.exit, label %tng_block_init.exit.thread

tng_block_init.exit:                              ; preds = %2
  %4 = load ptr, ptr @stderr, align 8, !tbaa !14
  %5 = tail call i32 (ptr, ptr, ...) @fprintf(ptr noundef %4, ptr noundef nonnull @.str, ptr noundef nonnull @.str.1, i32 noundef 940) #29
  %6 = getelementptr inbounds nuw i8, ptr %0, i64 8
  %7 = load ptr, ptr %6, align 8, !tbaa !137
  %8 = tail call i32 @fseeko64(ptr noundef %7, i64 noundef %1, i32 noundef 0)
  %9 = icmp sgt i64 %1, 0
  br i1 %9, label %18, label %tng_block_destroy.exit

tng_block_init.exit.thread:                       ; preds = %2
  %10 = getelementptr inbounds nuw i8, ptr %3, i64 16
  store i64 -1, ptr %10, align 8, !tbaa !183
  %11 = getelementptr inbounds nuw i8, ptr %3, i64 24
  %12 = getelementptr inbounds nuw i8, ptr %3, i64 48
  tail call void @llvm.memset.p0.i64(ptr noundef nonnull align 8 dereferenceable(24) %11, i8 0, i64 24, i1 false)
  store i64 8, ptr %12, align 8, !tbaa !185
  %13 = getelementptr inbounds nuw i8, ptr %3, i64 104
  tail call void @llvm.memset.p0.i64(ptr noundef nonnull align 8 dereferenceable(16) %3, i8 0, i64 16, i1 false)
  tail call void @llvm.memset.p0.i64(ptr noundef nonnull align 8 dereferenceable(16) %13, i8 0, i64 16, i1 false)
  %14 = getelementptr inbounds nuw i8, ptr %0, i64 8
  %15 = load ptr, ptr %14, align 8, !tbaa !137
  %16 = tail call i32 @fseeko64(ptr noundef %15, i64 noundef %1, i32 noundef 0)
  %17 = icmp sgt i64 %1, 0
  br i1 %17, label %18, label %.thread28.thread

18:                                               ; preds = %tng_block_init.exit.thread, %tng_block_init.exit
  %19 = tail call fastcc i32 @tng_block_header_read(ptr noundef nonnull %0, ptr noundef %3)
  %20 = icmp eq i32 %19, 2
  br i1 %20, label %26, label %21

21:                                               ; preds = %18
  %22 = getelementptr inbounds nuw i8, ptr %3, i64 16
  %23 = load i64, ptr %22, align 8, !tbaa !183
  %.not = icmp eq i64 %23, 2
  br i1 %.not, label %40, label %.thread

.thread:                                          ; preds = %21
  %24 = load ptr, ptr @stderr, align 8, !tbaa !14
  %25 = tail call i32 (ptr, ptr, ...) @fprintf(ptr noundef %24, ptr noundef nonnull @.str.14, i64 noundef %1, ptr noundef nonnull @.str.1, i32 noundef 1584) #29
  br label %29

26:                                               ; preds = %18
  %27 = load ptr, ptr @stderr, align 8, !tbaa !14
  %28 = tail call i32 (ptr, ptr, ...) @fprintf(ptr noundef %27, ptr noundef nonnull @.str.14, i64 noundef %1, ptr noundef nonnull @.str.1, i32 noundef 1584) #29
  br i1 %.not.i, label %tng_block_destroy.exit, label %29

29:                                               ; preds = %.thread, %26
  %30 = getelementptr inbounds nuw i8, ptr %3, i64 40
  %31 = load ptr, ptr %30, align 8, !tbaa !187
  %.not16.i = icmp eq ptr %31, null
  br i1 %.not16.i, label %33, label %32

32:                                               ; preds = %29
  tail call void @free(ptr noundef nonnull %31) #26
  store ptr null, ptr %30, align 8, !tbaa !187
  br label %33

33:                                               ; preds = %32, %29
  %34 = getelementptr inbounds nuw i8, ptr %3, i64 104
  %35 = load ptr, ptr %34, align 8, !tbaa !188
  %.not17.i = icmp eq ptr %35, null
  br i1 %.not17.i, label %37, label %36

36:                                               ; preds = %33
  tail call void @free(ptr noundef nonnull %35) #26
  store ptr null, ptr %34, align 8, !tbaa !188
  br label %37

37:                                               ; preds = %36, %33
  %38 = getelementptr inbounds nuw i8, ptr %3, i64 112
  %39 = load ptr, ptr %38, align 8, !tbaa !189
  %.not18.i = icmp eq ptr %39, null
  br i1 %.not18.i, label %tng_block_destroy.exit.sink.split, label %tng_block_destroy.exit.sink.split.sink.split

40:                                               ; preds = %21
  %41 = tail call i32 @tng_block_read_next(ptr noundef nonnull %0, ptr noundef nonnull %3, i8 noundef signext 0)
  %.not8 = icmp eq i32 %41, 0
  %.phi.trans.insert = getelementptr inbounds nuw i8, ptr %3, i64 40
  %.pre = load ptr, ptr %.phi.trans.insert, align 8, !tbaa !187
  %.not16.i16 = icmp eq ptr %.pre, null
  br i1 %.not8, label %.thread28, label %42

42:                                               ; preds = %40
  br i1 %.not16.i16, label %44, label %43

43:                                               ; preds = %42
  tail call void @free(ptr noundef nonnull %.pre) #26
  store ptr null, ptr %.phi.trans.insert, align 8, !tbaa !187
  br label %44

44:                                               ; preds = %43, %42
  %45 = getelementptr inbounds nuw i8, ptr %3, i64 104
  %46 = load ptr, ptr %45, align 8, !tbaa !188
  %.not17.i12 = icmp eq ptr %46, null
  br i1 %.not17.i12, label %48, label %47

47:                                               ; preds = %44
  tail call void @free(ptr noundef nonnull %46) #26
  store ptr null, ptr %45, align 8, !tbaa !188
  br label %48

48:                                               ; preds = %47, %44
  %49 = getelementptr inbounds nuw i8, ptr %3, i64 112
  %50 = load ptr, ptr %49, align 8, !tbaa !189
  %.not18.i13 = icmp eq ptr %50, null
  br i1 %.not18.i13, label %tng_block_destroy.exit.sink.split, label %tng_block_destroy.exit.sink.split.sink.split

.thread28:                                        ; preds = %40
  br i1 %.not16.i16, label %.thread28.thread, label %51

51:                                               ; preds = %.thread28
  %52 = getelementptr inbounds nuw i8, ptr %3, i64 40
  tail call void @free(ptr noundef nonnull %.pre) #26
  store ptr null, ptr %52, align 8, !tbaa !187
  br label %.thread28.thread

.thread28.thread:                                 ; preds = %tng_block_init.exit.thread, %51, %.thread28
  %53 = getelementptr inbounds nuw i8, ptr %3, i64 104
  %54 = load ptr, ptr %53, align 8, !tbaa !188
  %.not17.i17 = icmp eq ptr %54, null
  br i1 %.not17.i17, label %56, label %55

55:                                               ; preds = %.thread28.thread
  tail call void @free(ptr noundef nonnull %54) #26
  store ptr null, ptr %53, align 8, !tbaa !188
  br label %56

56:                                               ; preds = %55, %.thread28.thread
  %57 = getelementptr inbounds nuw i8, ptr %3, i64 112
  %58 = load ptr, ptr %57, align 8, !tbaa !189
  %.not18.i18 = icmp eq ptr %58, null
  br i1 %.not18.i18, label %tng_block_destroy.exit.sink.split, label %tng_block_destroy.exit.sink.split.sink.split

tng_block_destroy.exit.sink.split.sink.split:     ; preds = %56, %48, %37
  %.sink = phi ptr [ %39, %37 ], [ %50, %48 ], [ %58, %56 ]
  %.0.ph.ph = phi i32 [ 1, %37 ], [ 2, %48 ], [ 0, %56 ]
  tail call void @free(ptr noundef nonnull %.sink) #26
  br label %tng_block_destroy.exit.sink.split

tng_block_destroy.exit.sink.split:                ; preds = %tng_block_destroy.exit.sink.split.sink.split, %56, %48, %37
  %.0.ph = phi i32 [ 1, %37 ], [ 2, %48 ], [ 0, %56 ], [ %.0.ph.ph, %tng_block_destroy.exit.sink.split.sink.split ]
  tail call void @free(ptr noundef nonnull %3) #26
  br label %tng_block_destroy.exit

tng_block_destroy.exit:                           ; preds = %tng_block_destroy.exit.sink.split, %tng_block_init.exit, %26
  %.0 = phi i32 [ 1, %26 ], [ 0, %tng_block_init.exit ], [ %.0.ph, %tng_block_destroy.exit.sink.split ]
  ret i32 %.0
}